; ModuleID = '40/1093.c'
source_filename = "40/1093.c"
target datalayout = "e-m:e-p270:32:32-p271:32:32-p272:64:64-i64:64-f80:128-n8:16:32:64-S128"
target triple = "x86_64-pc-linux-gnu"

@.str = private unnamed_addr constant [16 x i8] c"%lf%lf%lf%lf%lf\00", align 1
@.str.1 = private unnamed_addr constant [15 x i8] c"Invalid input\0A\00", align 1
@.str.2 = private unnamed_addr constant [7 x i8] c"%.4lf\0A\00", align 1

; Function Attrs: noinline nounwind uwtable
define dso_local i32 @main() #0 {
  %1 = alloca i32, align 4
  %2 = alloca double, align 8
  %3 = alloca double, align 8
  %4 = alloca double, align 8
  %5 = alloca double, align 8
  %6 = alloca double, align 8
  %7 = alloca double, align 8
  %8 = alloca double, align 8
  %9 = alloca double, align 8
  %10 = alloca double, align 8
  store i32 0, i32* %1, align 4
  %11 = call i32 (i8*, ...) @__isoc99_scanf(i8* getelementptr inbounds ([16 x i8], [16 x i8]* @.str, i64 0, i64 0), double* %2, double* %3, double* %4, double* %5, double* %6)
  %12 = load double, double* %6, align 8
  %13 = fmul double 1.000000e+02, %12
  %14 = fdiv double %13, 3.600000e+02
  store double %14, double* %9, align 8
  %15 = load double, double* %9, align 8
  %16 = call double @cos(double %15) #3
  store double %16, double* %10, align 8
  %17 = load double, double* %10, align 8
  %18 = fcmp olt double %17, 0.000000e+00
  br i1 %18, label %24, label %19

19:                                               ; preds = %0
  %20 = load double, double* %10, align 8
  %21 = fmul double 1.000000e+04, %20
  %22 = fptosi double %21 to i32
  %23 = icmp eq i32 %22, 0
  br i1 %23, label %24, label %26

24:                                               ; preds = %19, %0
  %25 = call i32 (i8*, ...) @printf(i8* getelementptr inbounds ([15 x i8], [15 x i8]* @.str.1, i64 0, i64 0))
  br label %35

26:                                               ; preds = %19
  %27 = load double, double* %2, align 8
  %28 = load double, double* %3, align 8
  %29 = load double, double* %4, align 8
  %30 = load double, double* %5, align 8
  %31 = load double, double* %10, align 8
  %32 = call double @f(double %27, double %28, double %29, double %30, double %31)
  store double %32, double* %8, align 8
  %33 = load double, double* %8, align 8
  %34 = call i32 (i8*, ...) @printf(i8* getelementptr inbounds ([7 x i8], [7 x i8]* @.str.2, i64 0, i64 0), double %33)
  br label %35

35:                                               ; preds = %26, %24
  ret i32 0
}

declare dso_local i32 @__isoc99_scanf(i8*, ...) #1

; Function Attrs: nounwind
declare dso_local double @cos(double) #2

declare dso_local i32 @printf(i8*, ...) #1

; Function Attrs: noinline nounwind uwtable
define dso_local double @f(double %0, double %1, double %2, double %3, double %4) #0 {
  %6 = alloca double, align 8
  %7 = alloca double, align 8
  %8 = alloca double, align 8
  %9 = alloca double, align 8
  %10 = alloca double, align 8
  %11 = alloca double, align 8
  %12 = alloca double, align 8
  store double %0, double* %6, align 8
  store double %1, double* %7, align 8
  store double %2, double* %8, align 8
  store double %3, double* %9, align 8
  store double %4, double* %10, align 8
  %13 = load double, double* %6, align 8
  %14 = load double, double* %7, align 8
  %15 = fadd double %13, %14
  %16 = load double, double* %8, align 8
  %17 = fadd double %15, %16
  %18 = load double, double* %9, align 8
  %19 = fadd double %17, %18
  %20 = fdiv double %19, 2.000000e+00
  store double %20, double* %11, align 8
  %21 = load double, double* %11, align 8
  %22 = load double, double* %6, align 8
  %23 = fsub double %21, %22
  %24 = load double, double* %11, align 8
  %25 = load double, double* %7, align 8
  %26 = fsub double %24, %25
  %27 = fmul double %23, %26
  %28 = load double, double* %11, align 8
  %29 = load double, double* %8, align 8
  %30 = fsub double %28, %29
  %31 = fmul double %27, %30
  %32 = load double, double* %11, align 8
  %33 = load double, double* %9, align 8
  %34 = fsub double %32, %33
  %35 = fmul double %31, %34
  %36 = load double, double* %6, align 8
  %37 = load double, double* %7, align 8
  %38 = fmul double %36, %37
  %39 = load double, double* %8, align 8
  %40 = fmul double %38, %39
  %41 = load double, double* %9, align 8
  %42 = fmul double %40, %41
  %43 = load double, double* %10, align 8
  %44 = fmul double %42, %43
  %45 = load double, double* %10, align 8
  %46 = fmul double %44, %45
  %47 = fsub double %35, %46
  %48 = call double @sqrt(double %47) #3
  store double %48, double* %12, align 8
  %49 = load double, double* %12, align 8
  ret double %49
}

; Function Attrs: nounwind
declare dso_local double @sqrt(double) #2


!llvm.module.flags = !{!0}
!llvm.ident = !{!1}

!0 = !{i32 1, !"wchar_size", i32 4}
!1 = !{!"clang version 10.0.0-4ubuntu1 "}
